; Function Attrs: nounwind uwtable
define ptr @l_Lean_Loop_forIn_loop___at_Lean_Meta_Grind_checkSplitInfoArgStatus___spec__1___lambda__3___boxed(ptr noundef readonly captures(none) %0) local_unnamed_addr #0 {
  %2 = load ptr, ptr %0, align 8, !tbaa !4
  %3 = getelementptr inbounds nuw i8, ptr %0, i64 8
  %4 = load ptr, ptr %3, align 8, !tbaa !4
  %5 = getelementptr inbounds nuw i8, ptr %0, i64 16
  %6 = load ptr, ptr %5, align 8, !tbaa !4
  %7 = getelementptr inbounds nuw i8, ptr %0, i64 24
  %8 = load ptr, ptr %7, align 8, !tbaa !4
  %9 = getelementptr inbounds nuw i8, ptr %0, i64 32
  %10 = load ptr, ptr %9, align 8, !tbaa !4
  %11 = getelementptr inbounds nuw i8, ptr %0, i64 40
  %12 = load ptr, ptr %11, align 8, !tbaa !4
  %13 = getelementptr inbounds nuw i8, ptr %0, i64 48
  %14 = load ptr, ptr %13, align 8, !tbaa !4
  %15 = getelementptr inbounds nuw i8, ptr %0, i64 56
  %16 = load ptr, ptr %15, align 8, !tbaa !4
  %17 = getelementptr inbounds nuw i8, ptr %0, i64 64
  %18 = load ptr, ptr %17, align 8, !tbaa !4
  %19 = getelementptr inbounds nuw i8, ptr %0, i64 72
  %20 = load ptr, ptr %19, align 8, !tbaa !4
  %21 = getelementptr inbounds nuw i8, ptr %0, i64 80
  %22 = load ptr, ptr %21, align 8, !tbaa !4
  %23 = getelementptr inbounds nuw i8, ptr %0, i64 88
  %24 = load ptr, ptr %23, align 8, !tbaa !4
  %25 = getelementptr inbounds nuw i8, ptr %0, i64 96
  %26 = load ptr, ptr %25, align 8, !tbaa !4
  %27 = getelementptr inbounds nuw i8, ptr %0, i64 104
  %28 = load ptr, ptr %27, align 8, !tbaa !4
  %29 = getelementptr inbounds nuw i8, ptr %0, i64 112
  %30 = load ptr, ptr %29, align 8, !tbaa !4
  %31 = getelementptr inbounds nuw i8, ptr %0, i64 120
  %32 = load ptr, ptr %31, align 8, !tbaa !4
  %33 = getelementptr inbounds nuw i8, ptr %0, i64 128
  %34 = load ptr, ptr %33, align 8, !tbaa !4
  %35 = getelementptr inbounds nuw i8, ptr %0, i64 136
  %36 = load ptr, ptr %35, align 8, !tbaa !4
  %37 = tail call ptr @l_Lean_Loop_forIn_loop___at_Lean_Meta_Grind_checkSplitInfoArgStatus___spec__1___lambda__3(ptr noundef %2, ptr noundef %4, ptr noundef %6, ptr noundef %8, ptr noundef %10, ptr noundef %12, ptr noundef %14, ptr noundef %16, ptr poison, ptr noundef %20, ptr noundef %22, ptr noundef %24, ptr noundef %26, ptr noundef %28, ptr noundef %30, ptr noundef %32, ptr noundef %34, ptr noundef %36)
  %38 = ptrtoint ptr %34 to i64
  %39 = and i64 %38, 1
  %.not = icmp eq i64 %39, 0
  br i1 %.not, label %40, label %lean_dec.exit55

40:                                               ; preds = %1
  %41 = load i32, ptr %34, align 4, !tbaa !10
  %42 = icmp sgt i32 %41, 1
  br i1 %42, label %43, label %45, !prof !13

43:                                               ; preds = %40
  %44 = add nsw i32 %41, -1
  store i32 %44, ptr %34, align 4, !tbaa !10
  br label %lean_dec.exit55

45:                                               ; preds = %40
  %.not.i = icmp eq i32 %41, 0
  br i1 %.not.i, label %lean_dec.exit55, label %46

46:                                               ; preds = %45
  tail call void @lean_dec_ref_cold(ptr noundef nonnull %34) #4
  br label %lean_dec.exit55

lean_dec.exit55:                                  ; preds = %46, %45, %43, %1
  %47 = ptrtoint ptr %32 to i64
  %48 = and i64 %47, 1
  %.not74 = icmp eq i64 %48, 0
  br i1 %.not74, label %49, label %lean_dec.exit54

49:                                               ; preds = %lean_dec.exit55
  %50 = load i32, ptr %32, align 4, !tbaa !10
  %51 = icmp sgt i32 %50, 1
  br i1 %51, label %52, label %54, !prof !13

52:                                               ; preds = %49
  %53 = add nsw i32 %50, -1
  store i32 %53, ptr %32, align 4, !tbaa !10
  br label %lean_dec.exit54

54:                                               ; preds = %49
  %.not.i56 = icmp eq i32 %50, 0
  br i1 %.not.i56, label %lean_dec.exit54, label %55

55:                                               ; preds = %54
  tail call void @lean_dec_ref_cold(ptr noundef nonnull %32) #4
  br label %lean_dec.exit54

lean_dec.exit54:                                  ; preds = %55, %54, %52, %lean_dec.exit55
  %56 = ptrtoint ptr %30 to i64
  %57 = and i64 %56, 1
  %.not75 = icmp eq i64 %57, 0
  br i1 %.not75, label %58, label %lean_dec.exit53

58:                                               ; preds = %lean_dec.exit54
  %59 = load i32, ptr %30, align 4, !tbaa !10
  %60 = icmp sgt i32 %59, 1
  br i1 %60, label %61, label %63, !prof !13

61:                                               ; preds = %58
  %62 = add nsw i32 %59, -1
  store i32 %62, ptr %30, align 4, !tbaa !10
  br label %lean_dec.exit53

63:                                               ; preds = %58
  %.not.i58 = icmp eq i32 %59, 0
  br i1 %.not.i58, label %lean_dec.exit53, label %64

64:                                               ; preds = %63
  tail call void @lean_dec_ref_cold(ptr noundef nonnull %30) #4
  br label %lean_dec.exit53

lean_dec.exit53:                                  ; preds = %64, %63, %61, %lean_dec.exit54
  %65 = ptrtoint ptr %28 to i64
  %66 = and i64 %65, 1
  %.not76 = icmp eq i64 %66, 0
  br i1 %.not76, label %67, label %lean_dec.exit52

67:                                               ; preds = %lean_dec.exit53
  %68 = load i32, ptr %28, align 4, !tbaa !10
  %69 = icmp sgt i32 %68, 1
  br i1 %69, label %70, label %72, !prof !13

70:                                               ; preds = %67
  %71 = add nsw i32 %68, -1
  store i32 %71, ptr %28, align 4, !tbaa !10
  br label %lean_dec.exit52

72:                                               ; preds = %67
  %.not.i60 = icmp eq i32 %68, 0
  br i1 %.not.i60, label %lean_dec.exit52, label %73

73:                                               ; preds = %72
  tail call void @lean_dec_ref_cold(ptr noundef nonnull %28) #4
  br label %lean_dec.exit52

lean_dec.exit52:                                  ; preds = %73, %72, %70, %lean_dec.exit53
  %74 = ptrtoint ptr %26 to i64
  %75 = and i64 %74, 1
  %.not77 = icmp eq i64 %75, 0
  br i1 %.not77, label %76, label %lean_dec.exit51

76:                                               ; preds = %lean_dec.exit52
  %77 = load i32, ptr %26, align 4, !tbaa !10
  %78 = icmp sgt i32 %77, 1
  br i1 %78, label %79, label %81, !prof !13

79:                                               ; preds = %76
  %80 = add nsw i32 %77, -1
  store i32 %80, ptr %26, align 4, !tbaa !10
  br label %lean_dec.exit51

81:                                               ; preds = %76
  %.not.i62 = icmp eq i32 %77, 0
  br i1 %.not.i62, label %lean_dec.exit51, label %82

82:                                               ; preds = %81
  tail call void @lean_dec_ref_cold(ptr noundef nonnull %26) #4
  br label %lean_dec.exit51

lean_dec.exit51:                                  ; preds = %82, %81, %79, %lean_dec.exit52
  %83 = ptrtoint ptr %24 to i64
  %84 = and i64 %83, 1
  %.not78 = icmp eq i64 %84, 0
  br i1 %.not78, label %85, label %lean_dec.exit50

85:                                               ; preds = %lean_dec.exit51
  %86 = load i32, ptr %24, align 4, !tbaa !10
  %87 = icmp sgt i32 %86, 1
  br i1 %87, label %88, label %90, !prof !13

88:                                               ; preds = %85
  %89 = add nsw i32 %86, -1
  store i32 %89, ptr %24, align 4, !tbaa !10
  br label %lean_dec.exit50

90:                                               ; preds = %85
  %.not.i64 = icmp eq i32 %86, 0
  br i1 %.not.i64, label %lean_dec.exit50, label %91

91:                                               ; preds = %90
  tail call void @lean_dec_ref_cold(ptr noundef nonnull %24) #4
  br label %lean_dec.exit50

lean_dec.exit50:                                  ; preds = %91, %90, %88, %lean_dec.exit51
  %92 = ptrtoint ptr %22 to i64
  %93 = and i64 %92, 1
  %.not79 = icmp eq i64 %93, 0
  br i1 %.not79, label %94, label %lean_dec.exit49

94:                                               ; preds = %lean_dec.exit50
  %95 = load i32, ptr %22, align 4, !tbaa !10
  %96 = icmp sgt i32 %95, 1
  br i1 %96, label %97, label %99, !prof !13

97:                                               ; preds = %94
  %98 = add nsw i32 %95, -1
  store i32 %98, ptr %22, align 4, !tbaa !10
  br label %lean_dec.exit49

99:                                               ; preds = %94
  %.not.i66 = icmp eq i32 %95, 0
  br i1 %.not.i66, label %lean_dec.exit49, label %100

100:                                              ; preds = %99
  tail call void @lean_dec_ref_cold(ptr noundef nonnull %22) #4
  br label %lean_dec.exit49

lean_dec.exit49:                                  ; preds = %100, %99, %97, %lean_dec.exit50
  %101 = ptrtoint ptr %20 to i64
  %102 = and i64 %101, 1
  %.not80 = icmp eq i64 %102, 0
  br i1 %.not80, label %103, label %lean_dec.exit48

103:                                              ; preds = %lean_dec.exit49
  %104 = load i32, ptr %20, align 4, !tbaa !10
  %105 = icmp sgt i32 %104, 1
  br i1 %105, label %106, label %108, !prof !13

106:                                              ; preds = %103
  %107 = add nsw i32 %104, -1
  store i32 %107, ptr %20, align 4, !tbaa !10
  br label %lean_dec.exit48

108:                                              ; preds = %103
  %.not.i68 = icmp eq i32 %104, 0
  br i1 %.not.i68, label %lean_dec.exit48, label %109

109:                                              ; preds = %108
  tail call void @lean_dec_ref_cold(ptr noundef nonnull %20) #4
  br label %lean_dec.exit48

lean_dec.exit48:                                  ; preds = %109, %108, %106, %lean_dec.exit49
  %110 = ptrtoint ptr %18 to i64
  %111 = and i64 %110, 1
  %.not81 = icmp eq i64 %111, 0
  br i1 %.not81, label %112, label %lean_dec.exit47

112:                                              ; preds = %lean_dec.exit48
  %113 = load i32, ptr %18, align 4, !tbaa !10
  %114 = icmp sgt i32 %113, 1
  br i1 %114, label %115, label %117, !prof !13

115:                                              ; preds = %112
  %116 = add nsw i32 %113, -1
  store i32 %116, ptr %18, align 4, !tbaa !10
  br label %lean_dec.exit47

117:                                              ; preds = %112
  %.not.i70 = icmp eq i32 %113, 0
  br i1 %.not.i70, label %lean_dec.exit47, label %118

118:                                              ; preds = %117
  tail call void @lean_dec_ref_cold(ptr noundef nonnull %18) #4
  br label %lean_dec.exit47

lean_dec.exit47:                                  ; preds = %118, %117, %115, %lean_dec.exit48
  %119 = ptrtoint ptr %16 to i64
  %120 = and i64 %119, 1
  %.not82 = icmp eq i64 %120, 0
  br i1 %.not82, label %121, label %lean_dec.exit

121:                                              ; preds = %lean_dec.exit47
  %122 = load i32, ptr %16, align 4, !tbaa !10
  %123 = icmp sgt i32 %122, 1
  br i1 %123, label %124, label %126, !prof !13

124:                                              ; preds = %121
  %125 = add nsw i32 %122, -1
  store i32 %125, ptr %16, align 4, !tbaa !10
  br label %lean_dec.exit

126:                                              ; preds = %121
  %.not.i72 = icmp eq i32 %122, 0
  br i1 %.not.i72, label %lean_dec.exit, label %127

127:                                              ; preds = %126
  tail call void @lean_dec_ref_cold(ptr noundef nonnull %16) #4
  br label %lean_dec.exit

lean_dec.exit:                                    ; preds = %127, %126, %124, %lean_dec.exit47
  ret ptr %37
}